; Function Attrs: mustprogress uwtable
define hidden noundef ptr @_ZN7datalog24external_relation_plugin15get_column_sortEjP4sort(ptr nocapture noundef nonnull readnone align 8 dereferenceable(48) %this, i32 noundef %col, ptr nocapture noundef readonly %s) local_unnamed_addr #3 align 2 {
entry:
  %m_info.i = getelementptr inbounds i8, ptr %s, i64 24
  %0 = load ptr, ptr %m_info.i, align 8
  %m_parameters.i.i = getelementptr inbounds i8, ptr %0, i64 8
  %1 = load ptr, ptr %m_parameters.i.i, align 8
  %idxprom.i.i.i = zext i32 %col to i64
  %arrayidx.i.i.i = getelementptr inbounds %class.parameter, ptr %1, i64 %idxprom.i.i.i
  %_M_index.i.i.i.i = getelementptr inbounds i8, ptr %arrayidx.i.i.i, i64 8
  %2 = load i8, ptr %_M_index.i.i.i.i, align 8
  %cmp.not.i.i.i = icmp eq i8 %2, 1
  br i1 %cmp.not.i.i.i, label %_ZNK9parameter7get_astEv.exit, label %if.then.i.i.i

if.then.i.i.i:                                    ; preds = %entry
  %exception.i.i.i.i.i = tail call ptr @__cxa_allocate_exception(i64 16) #17
  store ptr getelementptr inbounds ({ [5 x ptr] }, ptr @_ZTVSt18bad_variant_access, i64 0, i32 0, i64 2), ptr %exception.i.i.i.i.i, align 8
  %_M_reason.i.i.i.i.i.i = getelementptr inbounds i8, ptr %exception.i.i.i.i.i, i64 8
  store ptr @.str.4, ptr %_M_reason.i.i.i.i.i.i, align 8
  tail call void @__cxa_throw(ptr nonnull %exception.i.i.i.i.i, ptr nonnull @_ZTISt18bad_variant_access, ptr nonnull @_ZNSt18bad_variant_accessD2Ev) #20
  unreachable

_ZNK9parameter7get_astEv.exit:                    ; preds = %entry
  %3 = load ptr, ptr %arrayidx.i.i.i, align 8
  ret ptr %3
}